; Function Attrs: mustprogress uwtable
define noundef ptr @_ZN6icu_7513Norm2AllModes14getNFCInstanceER10UErrorCode(ptr nocapture noundef nonnull align 4 dereferenceable(4) %errorCode) local_unnamed_addr #4 align 2 personality ptr @__gxx_personality_v0 {
entry:
  %0 = load i32, ptr %errorCode, align 4
  %cmp.i = icmp slt i32 %0, 1
  br i1 %cmp.i, label %if.end.i, label %return

if.end.i:                                         ; preds = %entry
  %1 = load atomic i32, ptr @_ZN6icu_75L11nfcInitOnceE acquire, align 4
  %cmp.not.i = icmp eq i32 %1, 2
  br i1 %cmp.not.i, label %if.else.i, label %land.lhs.true.i

land.lhs.true.i:                                  ; preds = %if.end.i
  %call2.i = tail call noundef signext i8 @_ZN6icu_7520umtx_initImplPreInitERNS_9UInitOnceE(ptr noundef nonnull align 4 dereferenceable(8) @_ZN6icu_75L11nfcInitOnceE)
  %tobool3.not.i = icmp eq i8 %call2.i, 0
  br i1 %tobool3.not.i, label %if.else.i, label %if.then4.i

if.then4.i:                                       ; preds = %land.lhs.true.i
  %call.i = tail call noundef ptr @_ZN6icu_7513Norm2AllModes17createNFCInstanceER10UErrorCode(ptr noundef nonnull align 4 dereferenceable(4) %errorCode)
  store ptr %call.i, ptr @_ZN6icu_75L12nfcSingletonE, align 8
  tail call void @ucln_common_registerCleanup_75(i32 noundef 15, ptr noundef nonnull @_ZN6icu_75L24uprv_normalizer2_cleanupEv)
  %2 = load i32, ptr %errorCode, align 4
  store i32 %2, ptr getelementptr inbounds ({ { i32 }, i32 }, ptr @_ZN6icu_75L11nfcInitOnceE, i64 0, i32 1), align 4
  tail call void @_ZN6icu_7521umtx_initImplPostInitERNS_9UInitOnceE(ptr noundef nonnull align 4 dereferenceable(8) @_ZN6icu_75L11nfcInitOnceE)
  br label %_ZN6icu_7513umtx_initOnceERNS_9UInitOnceEPFvR10UErrorCodeES3_.exit

if.else.i:                                        ; preds = %land.lhs.true.i, %if.end.i
  %3 = load i32, ptr getelementptr inbounds ({ { i32 }, i32 }, ptr @_ZN6icu_75L11nfcInitOnceE, i64 0, i32 1), align 4
  %cmp.i9.i = icmp slt i32 %3, 1
  br i1 %cmp.i9.i, label %_ZN6icu_7513umtx_initOnceERNS_9UInitOnceEPFvR10UErrorCodeES3_.exit, label %if.then8.i

if.then8.i:                                       ; preds = %if.else.i
  store i32 %3, ptr %errorCode, align 4
  br label %_ZN6icu_7513umtx_initOnceERNS_9UInitOnceEPFvR10UErrorCodeES3_.exit

_ZN6icu_7513umtx_initOnceERNS_9UInitOnceEPFvR10UErrorCodeES3_.exit: ; preds = %if.then4.i, %if.else.i, %if.then8.i
  %4 = load ptr, ptr @_ZN6icu_75L12nfcSingletonE, align 8
  br label %return

return:                                           ; preds = %entry, %_ZN6icu_7513umtx_initOnceERNS_9UInitOnceEPFvR10UErrorCodeES3_.exit
  %retval.0 = phi ptr [ %4, %_ZN6icu_7513umtx_initOnceERNS_9UInitOnceEPFvR10UErrorCodeES3_.exit ], [ null, %entry ]
  ret ptr %retval.0
}